target datalayout = "e-m:e-p270:32:32-p271:32:32-p272:64:64-i64:64-i128:128-f80:128-n8:16:32:64-S128"
target triple = "x86_64-pc-linux-gnu"

%"class.cv::videostab::FastMarchingMethod" = type <{ float, [4 x i8], %"class.cv::Mat_", %"class.cv::Mat_.0", %"class.cv::Mat_.1", %"class.std::vector", i32, [4 x i8] }>
%"class.cv::Mat_" = type { %"class.cv::Mat" }
%"class.cv::Mat" = type { i32, i32, i32, i32, ptr, ptr, ptr, ptr, ptr, ptr, %"struct.cv::MatSize", %"struct.cv::MatStep" }
%"struct.cv::MatSize" = type { ptr }
%"struct.cv::MatStep" = type { ptr, [2 x i64] }
%"class.cv::Mat_.0" = type { %"class.cv::Mat" }
%"class.cv::Mat_.1" = type { %"class.cv::Mat" }
%"class.std::vector" = type { %"struct.std::_Vector_base" }
%"struct.std::_Vector_base" = type { %"struct.std::_Vector_base<cv::videostab::FastMarchingMethod::DXY, std::allocator<cv::videostab::FastMarchingMethod::DXY>>::_Vector_impl" }
%"struct.std::_Vector_base<cv::videostab::FastMarchingMethod::DXY, std::allocator<cv::videostab::FastMarchingMethod::DXY>>::_Vector_impl" = type { %"struct.std::_Vector_base<cv::videostab::FastMarchingMethod::DXY, std::allocator<cv::videostab::FastMarchingMethod::DXY>>::_Vector_impl_data" }
%"struct.std::_Vector_base<cv::videostab::FastMarchingMethod::DXY, std::allocator<cv::videostab::FastMarchingMethod::DXY>>::_Vector_impl_data" = type { ptr, ptr, ptr }

; Function Attrs: inlinehint mustprogress nounwind uwtable
define linkonce_odr noundef float @_ZSt4sqrtf(float noundef %0) #6 comdat {
  %2 = alloca float, align 4
  store float %0, ptr %2, align 4, !tbaa !29
  %3 = load float, ptr %2, align 4, !tbaa !29
  %4 = call float @sqrtf(float noundef %3) #3, !tbaa !8
  ret float %4
}

; Function Attrs: inlinehint mustprogress nounwind uwtable
define linkonce_odr hidden noundef float @_Z3sqrf(float noundef %0) #6 comdat {
  %2 = alloca float, align 4
  store float %0, ptr %2, align 4, !tbaa !29
  %3 = load float, ptr %2, align 4, !tbaa !29
  %4 = load float, ptr %2, align 4, !tbaa !29
  %5 = fmul float %3, %4
  ret float %5
}

; Function Attrs: inlinehint mustprogress nounwind uwtable
define linkonce_odr hidden noundef nonnull align 4 dereferenceable(4) ptr @_ZNK2cv4Mat_IfEclEii(ptr noundef nonnull align 8 dereferenceable(96) %0, i32 noundef %1, i32 noundef %2) #6 comdat align 2 {
  %4 = alloca ptr, align 8
  %5 = alloca i32, align 4
  %6 = alloca i32, align 4
  store ptr %0, ptr %4, align 8, !tbaa !39
  store i32 %1, ptr %5, align 4, !tbaa !8
  store i32 %2, ptr %6, align 4, !tbaa !8
  %7 = load ptr, ptr %4, align 8
  %8 = getelementptr inbounds nuw %"class.cv::Mat", ptr %7, i32 0, i32 4
  %9 = load ptr, ptr %8, align 8, !tbaa !35
  %10 = getelementptr inbounds nuw %"class.cv::Mat", ptr %7, i32 0, i32 11
  %11 = getelementptr inbounds nuw %"struct.cv::MatStep", ptr %10, i32 0, i32 0
  %12 = load ptr, ptr %11, align 8, !tbaa !36
  %13 = getelementptr inbounds i64, ptr %12, i64 0
  %14 = load i64, ptr %13, align 8, !tbaa !37
  %15 = load i32, ptr %5, align 4, !tbaa !8
  %16 = sext i32 %15 to i64
  %17 = mul i64 %14, %16
  %18 = getelementptr inbounds nuw i8, ptr %9, i64 %17
  %19 = load i32, ptr %6, align 4, !tbaa !8
  %20 = sext i32 %19 to i64
  %21 = getelementptr inbounds float, ptr %18, i64 %20
  ret ptr %21
}

; Function Attrs: inlinehint mustprogress nounwind uwtable
define linkonce_odr hidden noundef nonnull align 1 dereferenceable(1) ptr @_ZNK2cv4Mat_IhEclEii(ptr noundef nonnull align 8 dereferenceable(96) %0, i32 noundef %1, i32 noundef %2) #6 comdat align 2 {
  %4 = alloca ptr, align 8
  %5 = alloca i32, align 4
  %6 = alloca i32, align 4
  store ptr %0, ptr %4, align 8, !tbaa !33
  store i32 %1, ptr %5, align 4, !tbaa !8
  store i32 %2, ptr %6, align 4, !tbaa !8
  %7 = load ptr, ptr %4, align 8
  %8 = getelementptr inbounds nuw %"class.cv::Mat", ptr %7, i32 0, i32 4
  %9 = load ptr, ptr %8, align 8, !tbaa !35
  %10 = getelementptr inbounds nuw %"class.cv::Mat", ptr %7, i32 0, i32 11
  %11 = getelementptr inbounds nuw %"struct.cv::MatStep", ptr %10, i32 0, i32 0
  %12 = load ptr, ptr %11, align 8, !tbaa !36
  %13 = getelementptr inbounds i64, ptr %12, i64 0
  %14 = load i64, ptr %13, align 8, !tbaa !37
  %15 = load i32, ptr %5, align 4, !tbaa !8
  %16 = sext i32 %15 to i64
  %17 = mul i64 %14, %16
  %18 = getelementptr inbounds nuw i8, ptr %9, i64 %17
  %19 = load i32, ptr %6, align 4, !tbaa !8
  %20 = sext i32 %19 to i64
  %21 = getelementptr inbounds i8, ptr %18, i64 %20
  ret ptr %21
}

; Function Attrs: mustprogress uwtable
define noundef float @_ZNK2cv9videostab18FastMarchingMethod5solveEiiii(ptr noundef nonnull align 8 dereferenceable(324) %0, i32 noundef %1, i32 noundef %2, i32 noundef %3, i32 noundef %4) #4 align 2 {
  %6 = alloca ptr, align 8
  %7 = alloca i32, align 4
  %8 = alloca i32, align 4
  %9 = alloca i32, align 4
  %10 = alloca i32, align 4
  %11 = alloca float, align 4
  %12 = alloca float, align 4
  %13 = alloca float, align 4
  %14 = alloca float, align 4
  %15 = alloca float, align 4
  store ptr %0, ptr %6, align 8, !tbaa !3
  store i32 %1, ptr %7, align 4, !tbaa !8
  store i32 %2, ptr %8, align 4, !tbaa !8
  store i32 %3, ptr %9, align 4, !tbaa !8
  store i32 %4, ptr %10, align 4, !tbaa !8
  %16 = load ptr, ptr %6, align 8
  call void @llvm.lifetime.start.p0(i64 4, ptr %11) #3
  %17 = getelementptr inbounds nuw %"class.cv::videostab::FastMarchingMethod", ptr %16, i32 0, i32 0
  %18 = load float, ptr %17, align 8, !tbaa !10
  store float %18, ptr %11, align 4, !tbaa !29
  %19 = load i32, ptr %8, align 4, !tbaa !8
  %20 = icmp sge i32 %19, 0
  br i1 %20, label %21, label %121

21:                                               ; preds = %5
  %22 = load i32, ptr %8, align 4, !tbaa !8
  %23 = getelementptr inbounds nuw %"class.cv::videostab::FastMarchingMethod", ptr %16, i32 0, i32 2
  %24 = getelementptr inbounds nuw %"class.cv::Mat", ptr %23, i32 0, i32 2
  %25 = load i32, ptr %24, align 8, !tbaa !30
  %26 = icmp slt i32 %22, %25
  br i1 %26, label %27, label %121

27:                                               ; preds = %21
  %28 = load i32, ptr %7, align 4, !tbaa !8
  %29 = icmp sge i32 %28, 0
  br i1 %29, label %30, label %121

30:                                               ; preds = %27
  %31 = load i32, ptr %7, align 4, !tbaa !8
  %32 = getelementptr inbounds nuw %"class.cv::videostab::FastMarchingMethod", ptr %16, i32 0, i32 2
  %33 = getelementptr inbounds nuw %"class.cv::Mat", ptr %32, i32 0, i32 3
  %34 = load i32, ptr %33, align 4, !tbaa !31
  %35 = icmp slt i32 %31, %34
  br i1 %35, label %36, label %121

36:                                               ; preds = %30
  %37 = getelementptr inbounds nuw %"class.cv::videostab::FastMarchingMethod", ptr %16, i32 0, i32 2
  %38 = load i32, ptr %8, align 4, !tbaa !8
  %39 = load i32, ptr %7, align 4, !tbaa !8
  %40 = call noundef nonnull align 1 dereferenceable(1) ptr @_ZNK2cv4Mat_IhEclEii(ptr noundef nonnull align 8 dereferenceable(96) %37, i32 noundef %38, i32 noundef %39)
  %41 = load i8, ptr %40, align 1, !tbaa !32
  %42 = zext i8 %41 to i32
  %43 = icmp eq i32 %42, 255
  br i1 %43, label %44, label %121

44:                                               ; preds = %36
  call void @llvm.lifetime.start.p0(i64 4, ptr %12) #3
  %45 = getelementptr inbounds nuw %"class.cv::videostab::FastMarchingMethod", ptr %16, i32 0, i32 3
  %46 = load i32, ptr %8, align 4, !tbaa !8
  %47 = load i32, ptr %7, align 4, !tbaa !8
  %48 = call noundef nonnull align 4 dereferenceable(4) ptr @_ZNK2cv4Mat_IfEclEii(ptr noundef nonnull align 8 dereferenceable(96) %45, i32 noundef %46, i32 noundef %47)
  %49 = load float, ptr %48, align 4, !tbaa !29
  store float %49, ptr %12, align 4, !tbaa !29
  %50 = load i32, ptr %10, align 4, !tbaa !8
  %51 = icmp sge i32 %50, 0
  br i1 %51, label %52, label %117

52:                                               ; preds = %44
  %53 = load i32, ptr %10, align 4, !tbaa !8
  %54 = getelementptr inbounds nuw %"class.cv::videostab::FastMarchingMethod", ptr %16, i32 0, i32 2
  %55 = getelementptr inbounds nuw %"class.cv::Mat", ptr %54, i32 0, i32 2
  %56 = load i32, ptr %55, align 8, !tbaa !30
  %57 = icmp slt i32 %53, %56
  br i1 %57, label %58, label %117

58:                                               ; preds = %52
  %59 = load i32, ptr %9, align 4, !tbaa !8
  %60 = icmp sge i32 %59, 0
  br i1 %60, label %61, label %117

61:                                               ; preds = %58
  %62 = load i32, ptr %9, align 4, !tbaa !8
  %63 = getelementptr inbounds nuw %"class.cv::videostab::FastMarchingMethod", ptr %16, i32 0, i32 2
  %64 = getelementptr inbounds nuw %"class.cv::Mat", ptr %63, i32 0, i32 3
  %65 = load i32, ptr %64, align 4, !tbaa !31
  %66 = icmp slt i32 %62, %65
  br i1 %66, label %67, label %117

67:                                               ; preds = %61
  %68 = getelementptr inbounds nuw %"class.cv::videostab::FastMarchingMethod", ptr %16, i32 0, i32 2
  %69 = load i32, ptr %10, align 4, !tbaa !8
  %70 = load i32, ptr %9, align 4, !tbaa !8
  %71 = call noundef nonnull align 1 dereferenceable(1) ptr @_ZNK2cv4Mat_IhEclEii(ptr noundef nonnull align 8 dereferenceable(96) %68, i32 noundef %69, i32 noundef %70)
  %72 = load i8, ptr %71, align 1, !tbaa !32
  %73 = zext i8 %72 to i32
  %74 = icmp eq i32 %73, 255
  br i1 %74, label %75, label %117

75:                                               ; preds = %67
  call void @llvm.lifetime.start.p0(i64 4, ptr %13) #3
  %76 = getelementptr inbounds nuw %"class.cv::videostab::FastMarchingMethod", ptr %16, i32 0, i32 3
  %77 = load i32, ptr %10, align 4, !tbaa !8
  %78 = load i32, ptr %9, align 4, !tbaa !8
  %79 = call noundef nonnull align 4 dereferenceable(4) ptr @_ZNK2cv4Mat_IfEclEii(ptr noundef nonnull align 8 dereferenceable(96) %76, i32 noundef %77, i32 noundef %78)
  %80 = load float, ptr %79, align 4, !tbaa !29
  store float %80, ptr %13, align 4, !tbaa !29
  call void @llvm.lifetime.start.p0(i64 4, ptr %14) #3
  %81 = load float, ptr %12, align 4, !tbaa !29
  %82 = load float, ptr %13, align 4, !tbaa !29
  %83 = fsub float %81, %82
  %84 = call noundef float @_Z3sqrf(float noundef %83)
  %85 = fsub float 2.000000e+00, %84
  %86 = call noundef float @_ZSt4sqrtf(float noundef %85)
  store float %86, ptr %14, align 4, !tbaa !29
  call void @llvm.lifetime.start.p0(i64 4, ptr %15) #3
  %87 = load float, ptr %12, align 4, !tbaa !29
  %88 = load float, ptr %13, align 4, !tbaa !29
  %89 = fadd float %87, %88
  %90 = load float, ptr %14, align 4, !tbaa !29
  %91 = fsub float %89, %90
  %92 = fdiv float %91, 2.000000e+00
  store float %92, ptr %15, align 4, !tbaa !29
  %93 = load float, ptr %15, align 4, !tbaa !29
  %94 = load float, ptr %12, align 4, !tbaa !29
  %95 = fcmp oge float %93, %94
  br i1 %95, label %96, label %102

96:                                               ; preds = %75
  %97 = load float, ptr %15, align 4, !tbaa !29
  %98 = load float, ptr %13, align 4, !tbaa !29
  %99 = fcmp oge float %97, %98
  br i1 %99, label %100, label %102

100:                                              ; preds = %96
  %101 = load float, ptr %15, align 4, !tbaa !29
  store float %101, ptr %11, align 4, !tbaa !29
  br label %116

102:                                              ; preds = %96, %75
  %103 = load float, ptr %14, align 4, !tbaa !29
  %104 = load float, ptr %15, align 4, !tbaa !29
  %105 = fadd float %104, %103
  store float %105, ptr %15, align 4, !tbaa !29
  %106 = load float, ptr %15, align 4, !tbaa !29
  %107 = load float, ptr %12, align 4, !tbaa !29
  %108 = fcmp oge float %106, %107
  br i1 %108, label %109, label %115

109:                                              ; preds = %102
  %110 = load float, ptr %15, align 4, !tbaa !29
  %111 = load float, ptr %13, align 4, !tbaa !29
  %112 = fcmp oge float %110, %111
  br i1 %112, label %113, label %115

113:                                              ; preds = %109
  %114 = load float, ptr %15, align 4, !tbaa !29
  store float %114, ptr %11, align 4, !tbaa !29
  br label %115

115:                                              ; preds = %113, %109, %102
  br label %116

116:                                              ; preds = %115, %100
  call void @llvm.lifetime.end.p0(i64 4, ptr %15) #3
  call void @llvm.lifetime.end.p0(i64 4, ptr %14) #3
  call void @llvm.lifetime.end.p0(i64 4, ptr %13) #3
  br label %120

117:                                              ; preds = %67, %61, %58, %52, %44
  %118 = load float, ptr %12, align 4, !tbaa !29
  %119 = fadd float 1.000000e+00, %118
  store float %119, ptr %11, align 4, !tbaa !29
  br label %120

120:                                              ; preds = %117, %116
  call void @llvm.lifetime.end.p0(i64 4, ptr %12) #3
  br label %155

121:                                              ; preds = %36, %30, %27, %21, %5
  %122 = load i32, ptr %10, align 4, !tbaa !8
  %123 = icmp sge i32 %122, 0
  br i1 %123, label %124, label %154

124:                                              ; preds = %121
  %125 = load i32, ptr %10, align 4, !tbaa !8
  %126 = getelementptr inbounds nuw %"class.cv::videostab::FastMarchingMethod", ptr %16, i32 0, i32 2
  %127 = getelementptr inbounds nuw %"class.cv::Mat", ptr %126, i32 0, i32 2
  %128 = load i32, ptr %127, align 8, !tbaa !30
  %129 = icmp slt i32 %125, %128
  br i1 %129, label %130, label %154

130:                                              ; preds = %124
  %131 = load i32, ptr %9, align 4, !tbaa !8
  %132 = icmp sge i32 %131, 0
  br i1 %132, label %133, label %154

133:                                              ; preds = %130
  %134 = load i32, ptr %9, align 4, !tbaa !8
  %135 = getelementptr inbounds nuw %"class.cv::videostab::FastMarchingMethod", ptr %16, i32 0, i32 2
  %136 = getelementptr inbounds nuw %"class.cv::Mat", ptr %135, i32 0, i32 3
  %137 = load i32, ptr %136, align 4, !tbaa !31
  %138 = icmp slt i32 %134, %137
  br i1 %138, label %139, label %154

139:                                              ; preds = %133
  %140 = getelementptr inbounds nuw %"class.cv::videostab::FastMarchingMethod", ptr %16, i32 0, i32 2
  %141 = load i32, ptr %10, align 4, !tbaa !8
  %142 = load i32, ptr %9, align 4, !tbaa !8
  %143 = call noundef nonnull align 1 dereferenceable(1) ptr @_ZNK2cv4Mat_IhEclEii(ptr noundef nonnull align 8 dereferenceable(96) %140, i32 noundef %141, i32 noundef %142)
  %144 = load i8, ptr %143, align 1, !tbaa !32
  %145 = zext i8 %144 to i32
  %146 = icmp eq i32 %145, 255
  br i1 %146, label %147, label %154

147:                                              ; preds = %139
  %148 = getelementptr inbounds nuw %"class.cv::videostab::FastMarchingMethod", ptr %16, i32 0, i32 3
  %149 = load i32, ptr %10, align 4, !tbaa !8
  %150 = load i32, ptr %7, align 4, !tbaa !8
  %151 = call noundef nonnull align 4 dereferenceable(4) ptr @_ZNK2cv4Mat_IfEclEii(ptr noundef nonnull align 8 dereferenceable(96) %148, i32 noundef %149, i32 noundef %150)
  %152 = load float, ptr %151, align 4, !tbaa !29
  %153 = fadd float 1.000000e+00, %152
  store float %153, ptr %11, align 4, !tbaa !29
  br label %154

154:                                              ; preds = %147, %139, %133, %130, %124, %121
  br label %155

155:                                              ; preds = %154, %120
  %156 = load float, ptr %11, align 4, !tbaa !29
  call void @llvm.lifetime.end.p0(i64 4, ptr %11) #3
  ret float %156
}