; Function Attrs: mustprogress nofree nounwind willreturn memory(readwrite, inaccessiblemem: write) uwtable
define noundef float @_ZNK2cv9videostab18FastMarchingMethod5solveEiiii(ptr noundef nonnull readonly align 8 captures(none) dereferenceable(324) %0, i32 noundef %1, i32 noundef %2, i32 noundef %3, i32 noundef %4) local_unnamed_addr #3 align 2 {
  %6 = load float, ptr %0, align 8, !tbaa !3
  %7 = icmp sgt i32 %2, -1
  br i1 %7, label %8, label %74

8:                                                ; preds = %5
  %9 = getelementptr inbounds nuw i8, ptr %0, i64 16
  %10 = load i32, ptr %9, align 8, !tbaa !26
  %11 = icmp slt i32 %2, %10
  %12 = icmp sgt i32 %1, -1
  %or.cond = and i1 %12, %11
  br i1 %or.cond, label %13, label %74

13:                                               ; preds = %8
  %14 = getelementptr inbounds nuw i8, ptr %0, i64 20
  %15 = load i32, ptr %14, align 4, !tbaa !27
  %16 = icmp slt i32 %1, %15
  br i1 %16, label %17, label %74

17:                                               ; preds = %13
  %18 = getelementptr inbounds nuw i8, ptr %0, i64 24
  %19 = load ptr, ptr %18, align 8, !tbaa !28
  %20 = getelementptr inbounds nuw i8, ptr %0, i64 80
  %21 = load ptr, ptr %20, align 8, !tbaa !29
  %22 = load i64, ptr %21, align 8, !tbaa !30
  %23 = zext nneg i32 %2 to i64
  %24 = mul i64 %22, %23
  %25 = getelementptr inbounds nuw i8, ptr %19, i64 %24
  %26 = zext nneg i32 %1 to i64
  %27 = getelementptr inbounds nuw i8, ptr %25, i64 %26
  %28 = load i8, ptr %27, align 1, !tbaa !32
  %29 = icmp eq i8 %28, -1
  br i1 %29, label %30, label %74

30:                                               ; preds = %17
  %31 = getelementptr inbounds nuw i8, ptr %0, i64 120
  %32 = load ptr, ptr %31, align 8, !tbaa !28
  %33 = getelementptr inbounds nuw i8, ptr %0, i64 176
  %34 = load ptr, ptr %33, align 8, !tbaa !29
  %35 = load i64, ptr %34, align 8, !tbaa !30
  %36 = mul i64 %35, %23
  %37 = getelementptr inbounds nuw i8, ptr %32, i64 %36
  %38 = getelementptr inbounds nuw float, ptr %37, i64 %26
  %39 = load float, ptr %38, align 4, !tbaa !33
  %40 = icmp sgt i32 %4, -1
  br i1 %40, label %41, label %72

41:                                               ; preds = %30
  %42 = icmp samesign ult i32 %4, %10
  %43 = icmp sgt i32 %3, -1
  %or.cond3 = and i1 %43, %42
  %44 = icmp slt i32 %3, %15
  %or.cond57 = and i1 %or.cond3, %44
  br i1 %or.cond57, label %45, label %72

45:                                               ; preds = %41
  %46 = zext nneg i32 %4 to i64
  %47 = mul i64 %22, %46
  %48 = getelementptr inbounds nuw i8, ptr %19, i64 %47
  %49 = zext nneg i32 %3 to i64
  %50 = getelementptr inbounds nuw i8, ptr %48, i64 %49
  %51 = load i8, ptr %50, align 1, !tbaa !32
  %52 = icmp eq i8 %51, -1
  br i1 %52, label %53, label %72

53:                                               ; preds = %45
  %54 = mul i64 %35, %46
  %55 = getelementptr inbounds nuw i8, ptr %32, i64 %54
  %56 = getelementptr inbounds nuw float, ptr %55, i64 %49
  %57 = load float, ptr %56, align 4, !tbaa !33
  %58 = fsub float %39, %57
  %59 = fmul float %58, %58
  %60 = fsub float 2.000000e+00, %59
  %61 = tail call noundef float @sqrtf(float noundef %60) #16, !tbaa !34
  %62 = fadd float %39, %57
  %63 = fsub float %62, %61
  %64 = fmul float %63, 5.000000e-01
  %65 = fcmp ult float %64, %39
  %66 = fcmp ult float %64, %57
  %or.cond58 = or i1 %65, %66
  br i1 %or.cond58, label %67, label %109

67:                                               ; preds = %53
  %68 = fadd float %61, %64
  %69 = fcmp ult float %68, %39
  %70 = fcmp ult float %68, %57
  %or.cond59 = or i1 %69, %70
  br i1 %or.cond59, label %109, label %71

71:                                               ; preds = %67
  br label %109

72:                                               ; preds = %45, %41, %30
  %73 = fadd float %39, 1.000000e+00
  br label %109

74:                                               ; preds = %17, %13, %8, %5
  %75 = icmp sgt i32 %4, -1
  br i1 %75, label %76, label %109

76:                                               ; preds = %74
  %77 = getelementptr inbounds nuw i8, ptr %0, i64 16
  %78 = load i32, ptr %77, align 8, !tbaa !26
  %79 = icmp slt i32 %4, %78
  %80 = icmp sgt i32 %3, -1
  %or.cond5 = and i1 %80, %79
  %81 = getelementptr inbounds nuw i8, ptr %0, i64 20
  %82 = load i32, ptr %81, align 4
  %83 = icmp slt i32 %3, %82
  %or.cond62 = select i1 %or.cond5, i1 %83, i1 false
  br i1 %or.cond62, label %84, label %109

84:                                               ; preds = %76
  %85 = getelementptr inbounds nuw i8, ptr %0, i64 24
  %86 = load ptr, ptr %85, align 8, !tbaa !28
  %87 = getelementptr inbounds nuw i8, ptr %0, i64 80
  %88 = load ptr, ptr %87, align 8, !tbaa !29
  %89 = load i64, ptr %88, align 8, !tbaa !30
  %90 = zext nneg i32 %4 to i64
  %91 = mul i64 %89, %90
  %92 = getelementptr inbounds nuw i8, ptr %86, i64 %91
  %93 = zext nneg i32 %3 to i64
  %94 = getelementptr inbounds nuw i8, ptr %92, i64 %93
  %95 = load i8, ptr %94, align 1, !tbaa !32
  %96 = icmp eq i8 %95, -1
  br i1 %96, label %97, label %109

97:                                               ; preds = %84
  %98 = getelementptr inbounds nuw i8, ptr %0, i64 120
  %99 = load ptr, ptr %98, align 8, !tbaa !28
  %100 = getelementptr inbounds nuw i8, ptr %0, i64 176
  %101 = load ptr, ptr %100, align 8, !tbaa !29
  %102 = load i64, ptr %101, align 8, !tbaa !30
  %103 = mul i64 %102, %90
  %104 = getelementptr inbounds nuw i8, ptr %99, i64 %103
  %105 = sext i32 %1 to i64
  %106 = getelementptr inbounds float, ptr %104, i64 %105
  %107 = load float, ptr %106, align 4, !tbaa !33
  %108 = fadd float %107, 1.000000e+00
  br label %109

109:                                              ; preds = %72, %53, %67, %71, %74, %76, %84, %97
  %.2 = phi float [ %108, %97 ], [ %6, %84 ], [ %6, %76 ], [ %6, %74 ], [ %73, %72 ], [ %68, %71 ], [ %6, %67 ], [ %64, %53 ]
  ret float %.2
}